; Function Attrs: mustprogress nofree norecurse nosync nounwind null_pointer_is_valid sspstrong willreturn memory(read, inaccessiblemem: none) uwtable
define noundef ptr @_ZNK15PacketListModel11getRowFdataEi(ptr noundef readonly align 8 captures(none) dereferenceable_or_null(156) %0, i32 noundef %1) local_unnamed_addr #11 align 2 {
  %3 = icmp slt i32 %1, 0
  br i1 %3, label %16, label %4

4:                                                ; preds = %2
  %5 = zext nneg i32 %1 to i64
  %6 = getelementptr inbounds nuw i8, ptr %0, i64 88
  %7 = load i64, ptr %6, align 8
  %.not = icmp sgt i64 %7, %5
  br i1 %.not, label %8, label %16

8:                                                ; preds = %4
  %9 = getelementptr inbounds nuw i8, ptr %0, i64 80
  %10 = load ptr, ptr %9, align 8
  %11 = getelementptr ptr, ptr %10, i64 %5
  %12 = load ptr, ptr %11, align 8
  %.not9 = icmp eq ptr %12, null
  br i1 %.not9, label %16, label %13

13:                                               ; preds = %8
  %14 = getelementptr inbounds nuw i8, ptr %12, i64 8
  %15 = load ptr, ptr %14, align 8
  br label %16

16:                                               ; preds = %13, %8, %2, %4
  %.0 = phi ptr [ null, %4 ], [ null, %2 ], [ %15, %13 ], [ null, %8 ]
  ret ptr %.0
}